; Function Attrs: mustprogress nofree norecurse nosync nounwind willreturn memory(read, inaccessiblemem: none) uwtable
define noundef ptr @_ZN9grpc_core11RetryFilter14GetRetryPolicyEPNS_5ArenaE(ptr noundef nonnull readonly align 8 captures(none) dereferenceable(40) %0, ptr noundef readonly captures(none) %1) local_unnamed_addr #9 align 2 {
  %3 = getelementptr inbounds nuw i8, ptr %1, i64 56
  %4 = load i16, ptr @_ZN9grpc_core12arena_detail18ArenaContextTraitsINS_21ServiceConfigCallDataEE3id_E, align 2, !tbaa !52
  %5 = zext i16 %4 to i64
  %6 = getelementptr inbounds nuw ptr, ptr %3, i64 %5
  %7 = load ptr, ptr %6, align 8, !tbaa !54
  %8 = icmp eq ptr %7, null
  br i1 %8, label %_ZNK9grpc_core21ServiceConfigCallData21GetMethodParsedConfigEm.exit, label %9

9:                                                ; preds = %2
  %10 = getelementptr inbounds nuw i8, ptr %7, i64 16
  %11 = load ptr, ptr %10, align 8, !tbaa !55
  %12 = icmp eq ptr %11, null
  br i1 %12, label %_ZNK9grpc_core21ServiceConfigCallData21GetMethodParsedConfigEm.exit, label %13

13:                                               ; preds = %9
  %14 = getelementptr inbounds nuw i8, ptr %0, i64 32
  %15 = load i64, ptr %14, align 8, !tbaa !20
  %16 = load ptr, ptr %11, align 8, !tbaa !63
  %17 = getelementptr inbounds nuw %"class.std::unique_ptr.54", ptr %16, i64 %15
  %18 = load ptr, ptr %17, align 8, !tbaa !66
  br label %_ZNK9grpc_core21ServiceConfigCallData21GetMethodParsedConfigEm.exit

_ZNK9grpc_core21ServiceConfigCallData21GetMethodParsedConfigEm.exit: ; preds = %13, %9, %2
  %.0 = phi ptr [ null, %2 ], [ %18, %13 ], [ null, %9 ]
  ret ptr %.0
}